target datalayout = "e-m:e-p270:32:32-p271:32:32-p272:64:64-i64:64-i128:128-f80:128-n8:16:32:64-S128"
target triple = "x86_64-pc-linux-gnu"

@.str.1 = private unnamed_addr constant [33 x i8] c"setsockopt(SO_REUSEADDR) failed\0A\00", align 1

; Function Attrs: nounwind uwtable
define i32 @ff_listen(i32 noundef %0, ptr noundef %1, i32 noundef %2, ptr noundef %3) #0 {
  %5 = alloca i32, align 4
  %6 = alloca i32, align 4
  %7 = alloca ptr, align 8
  %8 = alloca i32, align 4
  %9 = alloca ptr, align 8
  %10 = alloca i32, align 4
  %11 = alloca i32, align 4
  %12 = alloca i32, align 4
  store i32 %0, ptr %6, align 4, !tbaa !4
  store ptr %1, ptr %7, align 8, !tbaa !18
  store i32 %2, ptr %8, align 4, !tbaa !4
  store ptr %3, ptr %9, align 8, !tbaa !26
  call void @llvm.lifetime.start.p0(i64 4, ptr %10) #10
  call void @llvm.lifetime.start.p0(i64 4, ptr %11) #10
  store i32 1, ptr %11, align 4, !tbaa !4
  %13 = load i32, ptr %6, align 4, !tbaa !4
  %14 = call i32 @setsockopt(i32 noundef %13, i32 noundef 1, i32 noundef 2, ptr noundef %11, i32 noundef 4) #10
  %15 = icmp ne i32 %14, 0
  br i1 %15, label %16, label %18

16:                                               ; preds = %4
  %17 = load ptr, ptr %9, align 8, !tbaa !26
  call void (ptr, i32, ptr, ...) @av_log(ptr noundef %17, i32 noundef 24, ptr noundef @.str.1)
  br label %18

18:                                               ; preds = %16, %4
  %19 = load i32, ptr %6, align 4, !tbaa !4
  %20 = load ptr, ptr %7, align 8, !tbaa !18
  %21 = load i32, ptr %8, align 4, !tbaa !4
  %22 = call i32 @bind(i32 noundef %19, ptr noundef %20, i32 noundef %21) #10
  store i32 %22, ptr %10, align 4, !tbaa !4
  %23 = load i32, ptr %10, align 4, !tbaa !4
  %24 = icmp ne i32 %23, 0
  br i1 %24, label %25, label %29

25:                                               ; preds = %18
  %26 = call ptr @__errno_location() #11
  %27 = load i32, ptr %26, align 4, !tbaa !4
  %28 = sub nsw i32 0, %27
  store i32 %28, ptr %5, align 4
  store i32 1, ptr %12, align 4
  br label %40

29:                                               ; preds = %18
  %30 = load i32, ptr %6, align 4, !tbaa !4
  %31 = call i32 @listen(i32 noundef %30, i32 noundef 1) #10
  store i32 %31, ptr %10, align 4, !tbaa !4
  %32 = load i32, ptr %10, align 4, !tbaa !4
  %33 = icmp ne i32 %32, 0
  br i1 %33, label %34, label %38

34:                                               ; preds = %29
  %35 = call ptr @__errno_location() #11
  %36 = load i32, ptr %35, align 4, !tbaa !4
  %37 = sub nsw i32 0, %36
  store i32 %37, ptr %5, align 4
  store i32 1, ptr %12, align 4
  br label %40

38:                                               ; preds = %29
  %39 = load i32, ptr %10, align 4, !tbaa !4
  store i32 %39, ptr %5, align 4
  store i32 1, ptr %12, align 4
  br label %40

40:                                               ; preds = %38, %34, %25
  call void @llvm.lifetime.end.p0(i64 4, ptr %11) #10
  call void @llvm.lifetime.end.p0(i64 4, ptr %10) #10
  %41 = load i32, ptr %5, align 4
  ret i32 %41
}