; Function Attrs: nounwind uwtable
define range(i32 -2147483647, -2147483648) i32 @ff_listen(i32 noundef %0, ptr noundef %1, i32 noundef %2, ptr noundef %3) local_unnamed_addr #1 {
  %5 = alloca i32, align 4
  call void @llvm.lifetime.start.p0(i64 4, ptr nonnull %5) #12
  store i32 1, ptr %5, align 4, !tbaa !12
  %6 = call i32 @setsockopt(i32 noundef %0, i32 noundef 1, i32 noundef 2, ptr noundef nonnull %5, i32 noundef 4) #12
  %.not = icmp eq i32 %6, 0
  br i1 %.not, label %8, label %7

7:                                                ; preds = %4
  call void (ptr, i32, ptr, ...) @av_log(ptr noundef %3, i32 noundef 24, ptr noundef nonnull @.str.1) #12
  br label %8

8:                                                ; preds = %7, %4
  %9 = call i32 @bind(i32 noundef %0, ptr noundef %1, i32 noundef %2) #12
  %.not10 = icmp eq i32 %9, 0
  br i1 %.not10, label %10, label %.sink.split

10:                                               ; preds = %8
  %11 = call i32 @listen(i32 noundef %0, i32 noundef 1) #12
  %.not11 = icmp eq i32 %11, 0
  br i1 %.not11, label %15, label %.sink.split

.sink.split:                                      ; preds = %10, %8
  %12 = tail call ptr @__errno_location() #13
  %13 = load i32, ptr %12, align 4, !tbaa !12
  %14 = sub nsw i32 0, %13
  br label %15

15:                                               ; preds = %.sink.split, %10
  %.0 = phi i32 [ 0, %10 ], [ %14, %.sink.split ]
  call void @llvm.lifetime.end.p0(i64 4, ptr nonnull %5) #12
  ret i32 %.0
}